target datalayout = "e-m:e-p270:32:32-p271:32:32-p272:64:64-i64:64-i128:128-f80:128-n8:16:32:64-S128"
target triple = "x86_64-pc-linux-gnu"

%"class.o3dgc::DynamicVectorDecoder" = type <{ i64, i64, i64, i64, i64, ptr, %"class.o3dgc::DVEncodeParams", i32, [4 x i8] }>
%"class.o3dgc::DVEncodeParams" = type { i64, i32, i32 }

; Function Attrs: mustprogress nounwind uwtable
define linkonce_odr hidden void @_ZN5o3dgc14DVEncodeParamsD2Ev(ptr noundef nonnull align 8 dereferenceable(16) %0) unnamed_addr #0 comdat align 2 {
  %2 = alloca ptr, align 8
  store ptr %0, ptr %2, align 8
  ret void
}

; Function Attrs: mustprogress nounwind uwtable
define hidden void @_ZN5o3dgc20DynamicVectorDecoderD2Ev(ptr noundef nonnull align 8 dereferenceable(68) %0) unnamed_addr #0 align 2 {
  %2 = alloca ptr, align 8
  store ptr %0, ptr %2, align 8
  %3 = load ptr, ptr %2, align 8
  %4 = getelementptr inbounds nuw %"class.o3dgc::DynamicVectorDecoder", ptr %3, i32 0, i32 5
  %5 = load ptr, ptr %4, align 8
  %6 = icmp eq ptr %5, null
  br i1 %6, label %8, label %7

7:                                                ; preds = %1
  call void @_ZdaPv(ptr noundef %5) #12
  br label %8

8:                                                ; preds = %7, %1
  %9 = getelementptr inbounds nuw %"class.o3dgc::DynamicVectorDecoder", ptr %3, i32 0, i32 6
  call void @_ZN5o3dgc14DVEncodeParamsD2Ev(ptr noundef nonnull align 8 dereferenceable(16) %9) #11
  ret void
}